
main.elf:     file format elf32-littlearm


Disassembly of section .text:

08000000 <delay-0x50>:
 8000000:	20010000 	.word	0x20010000
 8000004:	080000ab 	.word	0x080000ab
 8000008:	080000a9 	.word	0x080000a9
 800000c:	080000a9 	.word	0x080000a9
 8000010:	080000a9 	.word	0x080000a9
 8000014:	080000a9 	.word	0x080000a9
 8000018:	080000a9 	.word	0x080000a9
 800001c:	080000a9 	.word	0x080000a9
 8000020:	080000a9 	.word	0x080000a9
 8000024:	080000a9 	.word	0x080000a9
 8000028:	080000a9 	.word	0x080000a9
 800002c:	080000a9 	.word	0x080000a9
 8000030:	080000a9 	.word	0x080000a9
 8000034:	080000a9 	.word	0x080000a9
 8000038:	080000a9 	.word	0x080000a9
 800003c:	080000a9 	.word	0x080000a9
 8000040:	080000a9 	.word	0x080000a9
 8000044:	080000a9 	.word	0x080000a9
 8000048:	080000a9 	.word	0x080000a9
 800004c:	080000a9 	.word	0x080000a9

08000050 <delay>:
 8000050:	4b04      	ldr	r3, [pc, #16]	@ (8000064 <delay+0x14>)
 8000052:	b082      	sub	sp, #8
 8000054:	9301      	str	r3, [sp, #4]
 8000056:	9b01      	ldr	r3, [sp, #4]
 8000058:	1e5a      	subs	r2, r3, #1
 800005a:	9201      	str	r2, [sp, #4]
 800005c:	2b00      	cmp	r3, #0
 800005e:	d1fa      	bne.n	8000056 <delay+0x6>
 8000060:	b002      	add	sp, #8
 8000062:	4770      	bx	lr
 8000064:	00061a80 	.word	0x00061a80

08000068 <startup>:
 8000068:	f44f 5400 	mov.w	r4, #8192	@ 0x2000
 800006c:	f04f 5000 	mov.w	r0, #536870912	@ 0x20000000
 8000070:	4a0b      	ldr	r2, [pc, #44]	@ (80000a0 <startup+0x38>)
 8000072:	b508      	push	{r3, lr}
 8000074:	6b13      	ldr	r3, [r2, #48]	@ 0x30
 8000076:	490b      	ldr	r1, [pc, #44]	@ (80000a4 <startup+0x3c>)
 8000078:	f043 0304 	orr.w	r3, r3, #4
 800007c:	6313      	str	r3, [r2, #48]	@ 0x30
 800007e:	680b      	ldr	r3, [r1, #0]
 8000080:	f023 6340 	bic.w	r3, r3, #201326592	@ 0xc000000
 8000084:	f043 6380 	orr.w	r3, r3, #67108864	@ 0x4000000
 8000088:	600b      	str	r3, [r1, #0]
 800008a:	684b      	ldr	r3, [r1, #4]
 800008c:	f423 5300 	bic.w	r3, r3, #8192	@ 0x2000
 8000090:	604b      	str	r3, [r1, #4]
 8000092:	618c      	str	r4, [r1, #24]
 8000094:	f7ff ffdc 	bl	8000050 <delay>
 8000098:	6188      	str	r0, [r1, #24]
 800009a:	f7ff ffd9 	bl	8000050 <delay>
 800009e:	e7f8      	b.n	8000092 <startup+0x2a>
 80000a0:	40023800 	.word	0x40023800
 80000a4:	40020800 	.word	0x40020800

080000a8 <spin>:
 80000a8:	e7fe      	b.n	80000a8 <spin>

080000aa <_reset>:
 80000aa:	f7ff ffdd 	bl	8000068 <startup>
 80000ae:	e7fe      	b.n	80000ae <_reset+0x4>
